target datalayout = "e-m:e-p270:32:32-p271:32:32-p272:64:64-i64:64-i128:128-f80:128-n8:16:32:64-S128"
target triple = "x86_64-pc-linux-gnu"

%"class.icu_77::CurrencyUnit" = type { %"class.icu_77::MeasureUnit.base", [4 x i16], [4 x i8] }
%"class.icu_77::MeasureUnit.base" = type <{ %"class.icu_77::UObject", ptr, i16, i8 }>
%"class.icu_77::UObject" = type { ptr }

; Function Attrs: mustprogress uwtable
define noundef nonnull align 8 dereferenceable(28) ptr @_ZN6icu_7712CurrencyUnitaSERKS0_(ptr noundef nonnull align 8 dereferenceable(28) %0, ptr noundef nonnull align 8 dereferenceable(28) %1) #1 align 2 {
  %3 = alloca ptr, align 8
  %4 = alloca ptr, align 8
  %5 = alloca ptr, align 8
  store ptr %0, ptr %4, align 8, !tbaa !23
  store ptr %1, ptr %5, align 8, !tbaa !23
  %6 = load ptr, ptr %4, align 8
  %7 = load ptr, ptr %5, align 8, !tbaa !23
  %8 = icmp eq ptr %6, %7
  br i1 %8, label %9, label %10

9:                                                ; preds = %2
  store ptr %6, ptr %3, align 8
  br label %19

10:                                               ; preds = %2
  %11 = load ptr, ptr %5, align 8, !tbaa !23
  %12 = call noundef nonnull align 8 dereferenceable(19) ptr @_ZN6icu_7711MeasureUnitaSERKS0_(ptr noundef nonnull align 8 dereferenceable(19) %6, ptr noundef nonnull align 8 dereferenceable(19) %11)
  %13 = getelementptr inbounds nuw %"class.icu_77::CurrencyUnit", ptr %6, i32 0, i32 1
  %14 = getelementptr inbounds [4 x i16], ptr %13, i64 0, i64 0
  %15 = load ptr, ptr %5, align 8, !tbaa !23
  %16 = getelementptr inbounds nuw %"class.icu_77::CurrencyUnit", ptr %15, i32 0, i32 1
  %17 = getelementptr inbounds [4 x i16], ptr %16, i64 0, i64 0
  %18 = call ptr @u_strcpy_77(ptr noundef %14, ptr noundef %17)
  store ptr %6, ptr %3, align 8
  br label %19

19:                                               ; preds = %10, %9
  %20 = load ptr, ptr %3, align 8
  ret ptr %20
}