; Function Attrs: mustprogress uwtable
define noundef nonnull align 8 dereferenceable(28) ptr @_ZN6icu_7712CurrencyUnitaSERKS0_(ptr noundef nonnull returned align 8 dereferenceable(28) %0, ptr noundef nonnull align 8 dereferenceable(28) %1) local_unnamed_addr #1 align 2 {
  %3 = icmp eq ptr %0, %1
  br i1 %3, label %9, label %4

4:                                                ; preds = %2
  %5 = tail call noundef nonnull align 8 dereferenceable(19) ptr @_ZN6icu_7711MeasureUnitaSERKS0_(ptr noundef nonnull align 8 dereferenceable(19) %0, ptr noundef nonnull align 8 dereferenceable(19) %1)
  %6 = getelementptr inbounds nuw i8, ptr %0, i64 20
  %7 = getelementptr inbounds nuw i8, ptr %1, i64 20
  %8 = tail call ptr @u_strcpy_77(ptr noundef nonnull %6, ptr noundef nonnull %7)
  br label %9

9:                                                ; preds = %2, %4
  ret ptr %0
}